target datalayout = "e-m:e-p270:32:32-p271:32:32-p272:64:64-i64:64-i128:128-f80:128-n8:16:32:64-S128"
target triple = "x86_64-pc-linux-gnu"

%struct.mspack_system = type { ptr, ptr, ptr, ptr, ptr, ptr, ptr, ptr, ptr, ptr, ptr }
%struct.mscab_decompressor_p = type { %struct.mscab_decompressor, ptr, ptr, i32, i32, i32, i32, i32, i32 }
%struct.mscab_decompressor = type { ptr, ptr, ptr, ptr, ptr, ptr, ptr, ptr }
%struct.mscabd_decompress_state = type { ptr, ptr, i32, i32, i64, %struct.mspack_system, i32, ptr, ptr, ptr, ptr, ptr, ptr, ptr, [65536 x i8] }

; Function Attrs: nounwind uwtable
define internal i32 @cabd_sys_write(ptr noundef %0, ptr noundef %1, i32 noundef %2) #0 {
  %4 = alloca i32, align 4
  %5 = alloca ptr, align 8
  %6 = alloca ptr, align 8
  %7 = alloca i32, align 4
  %8 = alloca ptr, align 8
  %9 = alloca i32, align 4
  store ptr %0, ptr %5, align 8, !tbaa !38
  store ptr %1, ptr %6, align 8, !tbaa !89
  store i32 %2, ptr %7, align 4, !tbaa !48
  call void @llvm.lifetime.start.p0(i64 8, ptr %8) #4
  %10 = load ptr, ptr %5, align 8, !tbaa !38
  store ptr %10, ptr %8, align 8, !tbaa !8
  %11 = load i32, ptr %7, align 4, !tbaa !48
  %12 = load ptr, ptr %8, align 8, !tbaa !8
  %13 = getelementptr inbounds nuw %struct.mscab_decompressor_p, ptr %12, i32 0, i32 1
  %14 = load ptr, ptr %13, align 8, !tbaa !25
  %15 = getelementptr inbounds nuw %struct.mscabd_decompress_state, ptr %14, i32 0, i32 2
  %16 = load i32, ptr %15, align 8, !tbaa !94
  %17 = add i32 %16, %11
  store i32 %17, ptr %15, align 8, !tbaa !94
  %18 = load ptr, ptr %8, align 8, !tbaa !8
  %19 = getelementptr inbounds nuw %struct.mscab_decompressor_p, ptr %18, i32 0, i32 1
  %20 = load ptr, ptr %19, align 8, !tbaa !25
  %21 = getelementptr inbounds nuw %struct.mscabd_decompress_state, ptr %20, i32 0, i32 11
  %22 = load ptr, ptr %21, align 8, !tbaa !104
  %23 = icmp ne ptr %22, null
  br i1 %23, label %24, label %38

24:                                               ; preds = %3
  %25 = load ptr, ptr %8, align 8, !tbaa !8
  %26 = getelementptr inbounds nuw %struct.mscab_decompressor_p, ptr %25, i32 0, i32 2
  %27 = load ptr, ptr %26, align 8, !tbaa !24
  %28 = getelementptr inbounds nuw %struct.mspack_system, ptr %27, i32 0, i32 3
  %29 = load ptr, ptr %28, align 8, !tbaa !144
  %30 = load ptr, ptr %8, align 8, !tbaa !8
  %31 = getelementptr inbounds nuw %struct.mscab_decompressor_p, ptr %30, i32 0, i32 1
  %32 = load ptr, ptr %31, align 8, !tbaa !25
  %33 = getelementptr inbounds nuw %struct.mscabd_decompress_state, ptr %32, i32 0, i32 11
  %34 = load ptr, ptr %33, align 8, !tbaa !104
  %35 = load ptr, ptr %6, align 8, !tbaa !89
  %36 = load i32, ptr %7, align 4, !tbaa !48
  %37 = call i32 %29(ptr noundef %34, ptr noundef %35, i32 noundef %36)
  store i32 %37, ptr %4, align 4
  store i32 1, ptr %9, align 4
  br label %40

38:                                               ; preds = %3
  %39 = load i32, ptr %7, align 4, !tbaa !48
  store i32 %39, ptr %4, align 4
  store i32 1, ptr %9, align 4
  br label %40

40:                                               ; preds = %38, %24
  call void @llvm.lifetime.end.p0(i64 8, ptr %8) #4
  %41 = load i32, ptr %4, align 4
  ret i32 %41
}