; Function Attrs: nounwind uwtable
define internal i32 @cabd_sys_write(ptr noundef readonly captures(none) %0, ptr noundef %1, i32 noundef %2) #0 {
  %4 = getelementptr inbounds nuw i8, ptr %0, i64 64
  %5 = load ptr, ptr %4, align 8, !tbaa !22
  %6 = getelementptr inbounds nuw i8, ptr %5, i64 16
  %7 = load i32, ptr %6, align 8, !tbaa !86
  %8 = add i32 %7, %2
  store i32 %8, ptr %6, align 8, !tbaa !86
  %9 = getelementptr inbounds nuw i8, ptr %5, i64 160
  %10 = load ptr, ptr %9, align 8, !tbaa !95
  %.not = icmp eq ptr %10, null
  br i1 %.not, label %17, label %11

11:                                               ; preds = %3
  %12 = getelementptr inbounds nuw i8, ptr %0, i64 72
  %13 = load ptr, ptr %12, align 8, !tbaa !21
  %14 = getelementptr inbounds nuw i8, ptr %13, i64 24
  %15 = load ptr, ptr %14, align 8, !tbaa !130
  %16 = tail call i32 %15(ptr noundef nonnull %10, ptr noundef %1, i32 noundef %2) #8
  br label %17

17:                                               ; preds = %3, %11
  %.0 = phi i32 [ %16, %11 ], [ %2, %3 ]
  ret i32 %.0
}